target datalayout = "e-m:e-p270:32:32-p271:32:32-p272:64:64-i64:64-i128:128-f80:128-n8:16:32:64-S128"
target triple = "x86_64-pc-linux-gnu"

%struct.AVCodecContext = type { ptr, i32, i32, ptr, i32, i32, ptr, ptr, ptr, i64, i32, i32, ptr, i32, %struct.AVRational, %struct.AVRational, %struct.AVRational, i32, i32, i32, i32, i32, %struct.AVRational, i32, i32, i32, i32, i32, i32, i32, i32, i32, i32, i32, ptr, ptr, i32, float, float, float, float, float, float, float, float, float, i32, i32, i32, i32, i32, i32, i32, i32, i32, i32, i32, i32, ptr, ptr, ptr, i32, i32, i32, i32, i32, i32, i32, i32, i32, i32, %struct.AVChannelLayout, i32, i32, i32, i32, i32, i32, i32, i32, ptr, i32, i32, i32, float, float, i32, i32, i32, i32, i32, ptr, i64, i64, float, float, i32, i32, ptr, ptr, i32, i32, i32, i32, i32, ptr, ptr, ptr, ptr, i32, i32, [8 x i64], i32, i32, i32, i32, i32, i32, i32, ptr, ptr, i32, i32, i32, i32, i32, i32, i32, i32, i32, i32, ptr, ptr, i32, i32, ptr, ptr, ptr, ptr, i32, i32, i64, i32, i32, i64, ptr, i64, ptr, i32, ptr, i32 }
%struct.AVRational = type { i32, i32 }
%struct.AVChannelLayout = type { i32, i32, %union.anon, ptr }
%union.anon = type { i64 }
%struct.MpegEncContext = type { ptr, i32, i32, i32, [12 x i32], i32, %struct.ScanTable, %struct.ScanTable, [64 x i8], [64 x i8], ptr, ptr, i32, i32, i32, i32, i32, i32, i32, i32, i32, i32, i32, i32, i32, i32, i32, i32, i32, i32, i32, i32, i64, i64, ptr, %struct.BufferPoolContext, i32, i32, %union.anon.0, i32, %struct.MPVWorkPicture, %struct.MPVWorkPicture, %struct.MPVWorkPicture, i32, [3 x i32], ptr, [3 x ptr], ptr, ptr, ptr, ptr, ptr, ptr, [3 x ptr], i32, ptr, ptr, ptr, ptr, %struct.ScratchpadContext, i32, i32, i32, i32, i32, i32, %struct.BlockDSPContext, %struct.H264ChromaContext, %struct.HpelDSPContext, %struct.IDCTDSPContext, %struct.QpelDSPContext, %struct.VideoDSPContext, %struct.H263DSPContext, ptr, [2 x [2 x ptr]], i32, i32, [2 x [4 x [2 x i32]]], [2 x [2 x i32]], [2 x [2 x [2 x i32]]], [2 x [64 x i16]], i32, i32, i32, i32, i32, [6 x i32], [6 x i32], [3 x ptr], ptr, [64 x i16], [64 x i16], [64 x i16], [64 x i16], i32, i32, %struct.GetBitContext, i32, i32, i32, i32, i32, i32, i32, i32, i32, i32, i32, i32, i32, i32, i32, i64, i64, i16, i16, i16, i16, i32, i32, i32, i32, i32, i32, i32, i32, i32, [3 x i32], i32, i32, i32, i32, i32, i32, %struct.GetBitContext, i32, [2 x [2 x i32]], i32, i32, i32, i32, i32, i32, i32, i32, i32, i32, i32, i32, i32, i32, [2 x i32], i32, i32, ptr, ptr, ptr, ptr, ptr, i32, i32, %struct.ERContext }
%struct.ScanTable = type { ptr, [64 x i8], [64 x i8] }
%struct.BufferPoolContext = type { ptr, ptr, ptr, ptr, ptr, i32, i32, i32 }
%union.anon.0 = type { [32 x ptr] }
%struct.MPVWorkPicture = type { [3 x ptr], [3 x i64], ptr, ptr, [2 x ptr], ptr, ptr, [2 x ptr], i32 }
%struct.ScratchpadContext = type { ptr, ptr, %union.anon.1, i32 }
%union.anon.1 = type { ptr }
%struct.BlockDSPContext = type { ptr, ptr, [2 x ptr] }
%struct.H264ChromaContext = type { [4 x ptr], [4 x ptr] }
%struct.HpelDSPContext = type { [4 x [4 x ptr]], [4 x [4 x ptr]], [4 x [4 x ptr]], [4 x ptr] }
%struct.IDCTDSPContext = type { ptr, ptr, ptr, ptr, ptr, ptr, [64 x i8], i32, i32 }
%struct.QpelDSPContext = type { [2 x [16 x ptr]], [2 x [16 x ptr]], [2 x [16 x ptr]] }
%struct.VideoDSPContext = type { ptr, ptr }
%struct.H263DSPContext = type { ptr, ptr }
%struct.GetBitContext = type { ptr, ptr, i32, i32, i32 }
%struct.ERContext = type { ptr, ptr, i32, ptr, i32, i32, i32, i64, i64, i32, i32, ptr, ptr, [3 x ptr], ptr, ptr, [2 x [4 x [2 x i32]]], %struct.ERPicture, %struct.ERPicture, %struct.ERPicture, [2 x ptr], [2 x ptr], i16, i16, i32, i32, ptr, ptr }
%struct.ERPicture = type { ptr, ptr, ptr, [2 x ptr], [2 x ptr], ptr, i32 }
%struct.MPVPicture = type { ptr, ptr, ptr, [2 x ptr], [2 x ptr], ptr, ptr, ptr, [2 x ptr], ptr, i32, i32, i32, i32, i32, i32, i32, i32, i32, i32, %struct.ThreadProgress }
%struct.ThreadProgress = type { i32, i32, %union.pthread_mutex_t, %union.pthread_cond_t }
%union.pthread_mutex_t = type { %struct.__pthread_mutex_s }
%struct.__pthread_mutex_s = type { i32, i32, i32, i32, i32, i16, i16, %struct.__pthread_internal_list }
%struct.__pthread_internal_list = type { ptr, ptr }
%union.pthread_cond_t = type { %struct.__pthread_cond_s }
%struct.__pthread_cond_s = type { %union.__atomic_wide_counter, %union.__atomic_wide_counter, [2 x i32], [2 x i32], i32, i32, [2 x i32] }
%union.__atomic_wide_counter = type { i64 }
%struct._VASliceParameterBufferMPEG4 = type { i32, i32, i32, i32, i32, i32, [4 x i32] }

; Function Attrs: inlinehint nounwind uwtable
define internal i32 @get_bits_count(ptr noundef %0) #3 {
  %2 = alloca ptr, align 8
  store ptr %0, ptr %2, align 8, !tbaa !140
  %3 = load ptr, ptr %2, align 8, !tbaa !140
  %4 = getelementptr inbounds nuw %struct.GetBitContext, ptr %3, i32 0, i32 2
  %5 = load i32, ptr %4, align 8, !tbaa !142
  ret i32 %5
}

; Function Attrs: nounwind uwtable
define internal i32 @vaapi_mpeg4_decode_slice(ptr noundef %0, ptr noundef %1, i32 noundef %2) #0 {
  %4 = alloca i32, align 4
  %5 = alloca ptr, align 8
  %6 = alloca ptr, align 8
  %7 = alloca i32, align 4
  %8 = alloca ptr, align 8
  %9 = alloca ptr, align 8
  %10 = alloca %struct._VASliceParameterBufferMPEG4, align 4
  %11 = alloca i32, align 4
  %12 = alloca %struct._VASliceParameterBufferMPEG4, align 4
  %13 = alloca i32, align 4
  store ptr %0, ptr %5, align 8, !tbaa !4
  store ptr %1, ptr %6, align 8, !tbaa !11
  store i32 %2, ptr %7, align 4, !tbaa !13
  call void @llvm.lifetime.start.p0(i64 8, ptr %8) #6
  %14 = load ptr, ptr %5, align 8, !tbaa !4
  %15 = getelementptr inbounds nuw %struct.AVCodecContext, ptr %14, i32 0, i32 6
  %16 = load ptr, ptr %15, align 8, !tbaa !15
  store ptr %16, ptr %8, align 8, !tbaa !34
  call void @llvm.lifetime.start.p0(i64 8, ptr %9) #6
  %17 = load ptr, ptr %8, align 8, !tbaa !34
  %18 = getelementptr inbounds nuw %struct.MpegEncContext, ptr %17, i32 0, i32 42
  %19 = getelementptr inbounds nuw %struct.MPVWorkPicture, ptr %18, i32 0, i32 2
  %20 = load ptr, ptr %19, align 8, !tbaa !36
  %21 = getelementptr inbounds nuw %struct.MPVPicture, ptr %20, i32 0, i32 9
  %22 = load ptr, ptr %21, align 8, !tbaa !58
  store ptr %22, ptr %9, align 8, !tbaa !61
  call void @llvm.lifetime.start.p0(i64 40, ptr %10) #6
  call void @llvm.lifetime.start.p0(i64 4, ptr %11) #6
  %23 = getelementptr inbounds nuw %struct._VASliceParameterBufferMPEG4, ptr %12, i32 0, i32 0
  %24 = load i32, ptr %7, align 4, !tbaa !13
  store i32 %24, ptr %23, align 4, !tbaa !127
  %25 = getelementptr inbounds nuw %struct._VASliceParameterBufferMPEG4, ptr %12, i32 0, i32 1
  store i32 0, ptr %25, align 4, !tbaa !129
  %26 = getelementptr inbounds nuw %struct._VASliceParameterBufferMPEG4, ptr %12, i32 0, i32 2
  store i32 0, ptr %26, align 4, !tbaa !130
  %27 = getelementptr inbounds nuw %struct._VASliceParameterBufferMPEG4, ptr %12, i32 0, i32 3
  %28 = load ptr, ptr %8, align 8, !tbaa !34
  %29 = getelementptr inbounds nuw %struct.MpegEncContext, ptr %28, i32 0, i32 134
  %30 = call i32 @get_bits_count(ptr noundef %29)
  %31 = srem i32 %30, 8
  store i32 %31, ptr %27, align 4, !tbaa !131
  %32 = getelementptr inbounds nuw %struct._VASliceParameterBufferMPEG4, ptr %12, i32 0, i32 4
  store i32 0, ptr %32, align 4, !tbaa !132
  %33 = getelementptr inbounds nuw %struct._VASliceParameterBufferMPEG4, ptr %12, i32 0, i32 5
  %34 = load ptr, ptr %8, align 8, !tbaa !34
  %35 = getelementptr inbounds nuw %struct.MpegEncContext, ptr %34, i32 0, i32 60
  %36 = load i32, ptr %35, align 8, !tbaa !133
  store i32 %36, ptr %33, align 4, !tbaa !134
  %37 = getelementptr inbounds nuw %struct._VASliceParameterBufferMPEG4, ptr %12, i32 0, i32 6
  call void @llvm.memset.p0.i64(ptr align 4 %37, i8 0, i64 16, i1 false)
  call void @llvm.memcpy.p0.p0.i64(ptr align 4 %10, ptr align 4 %12, i64 40, i1 false), !tbaa.struct !135
  %38 = load ptr, ptr %5, align 8, !tbaa !4
  %39 = load ptr, ptr %9, align 8, !tbaa !61
  %40 = load ptr, ptr %6, align 8, !tbaa !11
  %41 = load i32, ptr %7, align 4, !tbaa !13
  %42 = zext i32 %41 to i64
  %43 = call i32 @ff_vaapi_decode_make_slice_buffer(ptr noundef %38, ptr noundef %39, ptr noundef %10, i32 noundef 1, i64 noundef 40, ptr noundef %40, i64 noundef %42)
  store i32 %43, ptr %11, align 4, !tbaa !13
  %44 = load i32, ptr %11, align 4, !tbaa !13
  %45 = icmp slt i32 %44, 0
  br i1 %45, label %46, label %51

46:                                               ; preds = %3
  %47 = load ptr, ptr %5, align 8, !tbaa !4
  %48 = load ptr, ptr %9, align 8, !tbaa !61
  %49 = call i32 @ff_vaapi_decode_cancel(ptr noundef %47, ptr noundef %48)
  %50 = load i32, ptr %11, align 4, !tbaa !13
  store i32 %50, ptr %4, align 4
  store i32 1, ptr %13, align 4
  br label %52

51:                                               ; preds = %3
  store i32 0, ptr %4, align 4
  store i32 1, ptr %13, align 4
  br label %52

52:                                               ; preds = %51, %46
  call void @llvm.lifetime.end.p0(i64 4, ptr %11) #6
  call void @llvm.lifetime.end.p0(i64 40, ptr %10) #6
  call void @llvm.lifetime.end.p0(i64 8, ptr %9) #6
  call void @llvm.lifetime.end.p0(i64 8, ptr %8) #6
  %53 = load i32, ptr %4, align 4
  ret i32 %53
}