; Function Attrs: nounwind uwtable
define internal range(i32 -2147483648, 1) i32 @vaapi_mpeg4_decode_slice(ptr noundef %0, ptr noundef %1, i32 noundef %2) #0 {
  %4 = alloca %struct._VASliceParameterBufferMPEG4, align 4
  %5 = getelementptr inbounds nuw i8, ptr %0, i64 32
  %6 = load ptr, ptr %5, align 8, !tbaa !4
  %7 = getelementptr inbounds nuw i8, ptr %6, i64 1208
  %8 = load ptr, ptr %7, align 8, !tbaa !27
  %9 = getelementptr inbounds nuw i8, ptr %8, i64 96
  %10 = load ptr, ptr %9, align 8, !tbaa !50
  call void @llvm.lifetime.start.p0(i64 40, ptr nonnull %4) #5
  %11 = getelementptr i8, ptr %6, i64 4176
  %.val = load i32, ptr %11, align 8, !tbaa !108
  %12 = srem i32 %.val, 8
  %13 = getelementptr inbounds nuw i8, ptr %6, i64 1472
  %14 = load i32, ptr %13, align 8, !tbaa !109
  %.sroa.7.0..sroa_idx = getelementptr inbounds nuw i8, ptr %4, i64 24
  call void @llvm.memset.p0.i64(ptr noundef nonnull align 4 dereferenceable(16) %.sroa.7.0..sroa_idx, i8 0, i64 16, i1 false)
  store i32 %2, ptr %4, align 4, !tbaa !96
  %.sroa.2.0..sroa_idx = getelementptr inbounds nuw i8, ptr %4, i64 4
  store i32 0, ptr %.sroa.2.0..sroa_idx, align 4, !tbaa !96
  %.sroa.3.0..sroa_idx = getelementptr inbounds nuw i8, ptr %4, i64 8
  store i32 0, ptr %.sroa.3.0..sroa_idx, align 4, !tbaa !96
  %.sroa.4.0..sroa_idx = getelementptr inbounds nuw i8, ptr %4, i64 12
  store i32 %12, ptr %.sroa.4.0..sroa_idx, align 4, !tbaa !96
  %.sroa.5.0..sroa_idx = getelementptr inbounds nuw i8, ptr %4, i64 16
  store i32 0, ptr %.sroa.5.0..sroa_idx, align 4, !tbaa !96
  %.sroa.6.0..sroa_idx = getelementptr inbounds nuw i8, ptr %4, i64 20
  store i32 %14, ptr %.sroa.6.0..sroa_idx, align 4, !tbaa !96
  %15 = zext i32 %2 to i64
  %16 = call i32 @ff_vaapi_decode_make_slice_buffer(ptr noundef %0, ptr noundef %10, ptr noundef nonnull %4, i32 noundef 1, i64 noundef 40, ptr noundef %1, i64 noundef %15) #5
  %17 = icmp slt i32 %16, 0
  br i1 %17, label %18, label %20

18:                                               ; preds = %3
  %19 = call i32 @ff_vaapi_decode_cancel(ptr noundef nonnull %0, ptr noundef %10) #5
  br label %20

20:                                               ; preds = %3, %18
  %.0 = phi i32 [ %16, %18 ], [ 0, %3 ]
  call void @llvm.lifetime.end.p0(i64 40, ptr nonnull %4) #5
  ret i32 %.0
}